; Function Attrs: mustprogress uwtable
define hidden void @_ZN4cvc58internal6theory11quantifiers22SynthConjectureProcess28getSymmetryBreakingPredicateENS0_12NodeTemplateILb1EEES5_NS0_8TypeNodeEjj(ptr dead_on_unwind noalias writable writeonly sret(%"class.cvc5::internal::NodeTemplate") align 8 captures(none) initializes((0, 8)) %0, ptr noundef nonnull readnone align 8 captures(none) dereferenceable(64) %1, ptr noundef readnone captures(none) %2, ptr noundef readnone captures(none) %3, ptr noundef readnone captures(none) %4, i32 noundef %5, i32 noundef %6) local_unnamed_addr #3 align 2 {
  tail call void @llvm.experimental.noalias.scope.decl(metadata !626)
  %8 = load ptr, ptr @_ZN4cvc58internal12NodeTemplateILb1EE6s_nullE, align 8, !tbaa !11, !noalias !626
  store ptr %8, ptr %0, align 8, !tbaa !11, !alias.scope !626
  %9 = load i64, ptr %8, align 8, !noalias !626
  %10 = lshr i64 %9, 40
  %11 = trunc nuw nsw i64 %10 to i32
  %12 = and i32 %11, 1048575
  %13 = icmp samesign ult i32 %12, 1048574
  br i1 %13, label %14, label %19, !prof !24

14:                                               ; preds = %7
  %15 = add i64 %9, 1099511627776
  %16 = and i64 %15, 1152920405095219200
  %17 = and i64 %9, -1152920405095219201
  %18 = or disjoint i64 %16, %17
  store i64 %18, ptr %8, align 8, !noalias !626
  br label %_ZN4cvc58internal12NodeTemplateILb1EE4nullEv.exit

19:                                               ; preds = %7
  %20 = icmp eq i32 %12, 1048574
  br i1 %20, label %21, label %_ZN4cvc58internal12NodeTemplateILb1EE4nullEv.exit, !prof !23

21:                                               ; preds = %19
  %22 = or i64 %9, 1152920405095219200
  store i64 %22, ptr %8, align 8, !noalias !626
  tail call void @_ZN4cvc58internal4expr9NodeValue20markRefCountMaxedOutEv(ptr noundef nonnull align 8 dereferenceable(24) %8), !noalias !626
  br label %_ZN4cvc58internal12NodeTemplateILb1EE4nullEv.exit

_ZN4cvc58internal12NodeTemplateILb1EE4nullEv.exit: ; preds = %14, %19, %21
  ret void
}